target datalayout = "e-m:e-p270:32:32-p271:32:32-p272:64:64-i64:64-i128:128-f80:128-n8:16:32:64-S128"
target triple = "x86_64-pc-linux-gnu"

%struct.BiquadsContext = type { ptr, i32, i32, i32, i32, i32, i32, i32, i32, double, double, double, double, ptr, %struct.AVChannelLayout, i32, i32, [3 x double], [3 x double], [3 x float], [3 x float], [3 x double], [3 x double], [3 x ptr], ptr, [2 x ptr], i32, i64, i32, ptr }
%struct.AVChannelLayout = type { i32, i32, %union.anon.1, ptr }
%union.anon.1 = type { i64 }

; Function Attrs: nounwind uwtable
define internal void @biquad_svf_flt(ptr noundef %0, ptr noundef %1, ptr noundef %2, i32 noundef %3, ptr noundef %4, ptr noundef %5, i32 noundef %6) #1 {
  %8 = alloca ptr, align 8
  %9 = alloca ptr, align 8
  %10 = alloca ptr, align 8
  %11 = alloca i32, align 4
  %12 = alloca ptr, align 8
  %13 = alloca ptr, align 8
  %14 = alloca i32, align 4
  %15 = alloca ptr, align 8
  %16 = alloca ptr, align 8
  %17 = alloca ptr, align 8
  %18 = alloca ptr, align 8
  %19 = alloca ptr, align 8
  %20 = alloca float, align 4
  %21 = alloca float, align 4
  %22 = alloca float, align 4
  %23 = alloca float, align 4
  %24 = alloca float, align 4
  %25 = alloca float, align 4
  %26 = alloca float, align 4
  %27 = alloca float, align 4
  %28 = alloca float, align 4
  %29 = alloca float, align 4
  %30 = alloca float, align 4
  %31 = alloca float, align 4
  %32 = alloca float, align 4
  %33 = alloca i32, align 4
  store ptr %0, ptr %8, align 8, !tbaa !22
  store ptr %1, ptr %9, align 8, !tbaa !36
  store ptr %2, ptr %10, align 8, !tbaa !36
  store i32 %3, ptr %11, align 4, !tbaa !31
  store ptr %4, ptr %12, align 8, !tbaa !36
  store ptr %5, ptr %13, align 8, !tbaa !82
  store i32 %6, ptr %14, align 4, !tbaa !31
  call void @llvm.lifetime.start.p0(i64 8, ptr %15) #11
  %34 = load ptr, ptr %9, align 8, !tbaa !36
  store ptr %34, ptr %15, align 8, !tbaa !85
  call void @llvm.lifetime.start.p0(i64 8, ptr %16) #11
  %35 = load ptr, ptr %10, align 8, !tbaa !36
  store ptr %35, ptr %16, align 8, !tbaa !85
  call void @llvm.lifetime.start.p0(i64 8, ptr %17) #11
  %36 = load ptr, ptr %12, align 8, !tbaa !36
  store ptr %36, ptr %17, align 8, !tbaa !85
  call void @llvm.lifetime.start.p0(i64 8, ptr %18) #11
  %37 = load ptr, ptr %8, align 8, !tbaa !22
  %38 = getelementptr inbounds nuw %struct.BiquadsContext, ptr %37, i32 0, i32 19
  %39 = getelementptr inbounds [3 x float], ptr %38, i64 0, i64 0
  store ptr %39, ptr %18, align 8, !tbaa !85
  call void @llvm.lifetime.start.p0(i64 8, ptr %19) #11
  %40 = load ptr, ptr %8, align 8, !tbaa !22
  %41 = getelementptr inbounds nuw %struct.BiquadsContext, ptr %40, i32 0, i32 20
  %42 = getelementptr inbounds [3 x float], ptr %41, i64 0, i64 0
  store ptr %42, ptr %19, align 8, !tbaa !85
  call void @llvm.lifetime.start.p0(i64 4, ptr %20) #11
  %43 = load ptr, ptr %18, align 8, !tbaa !85
  %44 = getelementptr inbounds float, ptr %43, i64 1
  %45 = load float, ptr %44, align 4, !tbaa !80
  store float %45, ptr %20, align 4, !tbaa !80
  call void @llvm.lifetime.start.p0(i64 4, ptr %21) #11
  %46 = load ptr, ptr %18, align 8, !tbaa !85
  %47 = getelementptr inbounds float, ptr %46, i64 2
  %48 = load float, ptr %47, align 4, !tbaa !80
  store float %48, ptr %21, align 4, !tbaa !80
  call void @llvm.lifetime.start.p0(i64 4, ptr %22) #11
  %49 = load ptr, ptr %19, align 8, !tbaa !85
  %50 = getelementptr inbounds float, ptr %49, i64 0
  %51 = load float, ptr %50, align 4, !tbaa !80
  store float %51, ptr %22, align 4, !tbaa !80
  call void @llvm.lifetime.start.p0(i64 4, ptr %23) #11
  %52 = load ptr, ptr %19, align 8, !tbaa !85
  %53 = getelementptr inbounds float, ptr %52, i64 1
  %54 = load float, ptr %53, align 4, !tbaa !80
  store float %54, ptr %23, align 4, !tbaa !80
  call void @llvm.lifetime.start.p0(i64 4, ptr %24) #11
  %55 = load ptr, ptr %19, align 8, !tbaa !85
  %56 = getelementptr inbounds float, ptr %55, i64 2
  %57 = load float, ptr %56, align 4, !tbaa !80
  store float %57, ptr %24, align 4, !tbaa !80
  call void @llvm.lifetime.start.p0(i64 4, ptr %25) #11
  %58 = load ptr, ptr %17, align 8, !tbaa !85
  %59 = getelementptr inbounds float, ptr %58, i64 0
  %60 = load float, ptr %59, align 4, !tbaa !80
  store float %60, ptr %25, align 4, !tbaa !80
  call void @llvm.lifetime.start.p0(i64 4, ptr %26) #11
  %61 = load ptr, ptr %17, align 8, !tbaa !85
  %62 = getelementptr inbounds float, ptr %61, i64 1
  %63 = load float, ptr %62, align 4, !tbaa !80
  store float %63, ptr %26, align 4, !tbaa !80
  call void @llvm.lifetime.start.p0(i64 4, ptr %27) #11
  %64 = load ptr, ptr %8, align 8, !tbaa !22
  %65 = getelementptr inbounds nuw %struct.BiquadsContext, ptr %64, i32 0, i32 12
  %66 = load double, ptr %65, align 8, !tbaa !87
  %67 = fptrunc nsz double %66 to float
  store float %67, ptr %27, align 4, !tbaa !80
  call void @llvm.lifetime.start.p0(i64 4, ptr %28) #11
  %68 = load float, ptr %27, align 4, !tbaa !80
  %69 = fpext nsz float %68 to double
  %70 = fsub nsz double 1.000000e+00, %69
  %71 = fptrunc nsz double %70 to float
  store float %71, ptr %28, align 4, !tbaa !80
  call void @llvm.lifetime.start.p0(i64 4, ptr %29) #11
  call void @llvm.lifetime.start.p0(i64 4, ptr %30) #11
  call void @llvm.lifetime.start.p0(i64 4, ptr %31) #11
  call void @llvm.lifetime.start.p0(i64 4, ptr %32) #11
  call void @llvm.lifetime.start.p0(i64 4, ptr %33) #11
  store i32 0, ptr %33, align 4, !tbaa !31
  br label %72

72:                                               ; preds = %124, %7
  %73 = load i32, ptr %33, align 4, !tbaa !31
  %74 = load i32, ptr %11, align 4, !tbaa !31
  %75 = icmp slt i32 %73, %74
  br i1 %75, label %77, label %76

76:                                               ; preds = %72
  call void @llvm.lifetime.end.p0(i64 4, ptr %33) #11
  br label %127

77:                                               ; preds = %72
  %78 = load ptr, ptr %15, align 8, !tbaa !85
  %79 = load i32, ptr %33, align 4, !tbaa !31
  %80 = sext i32 %79 to i64
  %81 = getelementptr inbounds float, ptr %78, i64 %80
  %82 = load float, ptr %81, align 4, !tbaa !80
  store float %82, ptr %29, align 4, !tbaa !80
  %83 = load float, ptr %24, align 4, !tbaa !80
  %84 = load float, ptr %29, align 4, !tbaa !80
  %85 = load float, ptr %25, align 4, !tbaa !80
  %86 = call nsz float @llvm.fmuladd.f32(float %83, float %84, float %85)
  store float %86, ptr %30, align 4, !tbaa !80
  %87 = load float, ptr %22, align 4, !tbaa !80
  %88 = load float, ptr %29, align 4, !tbaa !80
  %89 = load float, ptr %20, align 4, !tbaa !80
  %90 = load float, ptr %25, align 4, !tbaa !80
  %91 = fmul nsz float %89, %90
  %92 = call nsz float @llvm.fmuladd.f32(float %87, float %88, float %91)
  %93 = load float, ptr %26, align 4, !tbaa !80
  %94 = fadd nsz float %92, %93
  store float %94, ptr %31, align 4, !tbaa !80
  %95 = load float, ptr %23, align 4, !tbaa !80
  %96 = load float, ptr %29, align 4, !tbaa !80
  %97 = load float, ptr %21, align 4, !tbaa !80
  %98 = load float, ptr %25, align 4, !tbaa !80
  %99 = fmul nsz float %97, %98
  %100 = call nsz float @llvm.fmuladd.f32(float %95, float %96, float %99)
  store float %100, ptr %32, align 4, !tbaa !80
  %101 = load float, ptr %31, align 4, !tbaa !80
  store float %101, ptr %25, align 4, !tbaa !80
  %102 = load float, ptr %32, align 4, !tbaa !80
  store float %102, ptr %26, align 4, !tbaa !80
  %103 = load float, ptr %30, align 4, !tbaa !80
  %104 = load float, ptr %27, align 4, !tbaa !80
  %105 = load float, ptr %29, align 4, !tbaa !80
  %106 = load float, ptr %28, align 4, !tbaa !80
  %107 = fmul nsz float %105, %106
  %108 = call nsz float @llvm.fmuladd.f32(float %103, float %104, float %107)
  store float %108, ptr %30, align 4, !tbaa !80
  %109 = load i32, ptr %14, align 4, !tbaa !31
  %110 = icmp ne i32 %109, 0
  br i1 %110, label %111, label %117

111:                                              ; preds = %77
  %112 = load float, ptr %29, align 4, !tbaa !80
  %113 = load ptr, ptr %16, align 8, !tbaa !85
  %114 = load i32, ptr %33, align 4, !tbaa !31
  %115 = sext i32 %114 to i64
  %116 = getelementptr inbounds float, ptr %113, i64 %115
  store float %112, ptr %116, align 4, !tbaa !80
  br label %123

117:                                              ; preds = %77
  %118 = load float, ptr %30, align 4, !tbaa !80
  %119 = load ptr, ptr %16, align 8, !tbaa !85
  %120 = load i32, ptr %33, align 4, !tbaa !31
  %121 = sext i32 %120 to i64
  %122 = getelementptr inbounds float, ptr %119, i64 %121
  store float %118, ptr %122, align 4, !tbaa !80
  br label %123

123:                                              ; preds = %117, %111
  br label %124

124:                                              ; preds = %123
  %125 = load i32, ptr %33, align 4, !tbaa !31
  %126 = add nsw i32 %125, 1
  store i32 %126, ptr %33, align 4, !tbaa !31
  br label %72, !llvm.loop !113

127:                                              ; preds = %76
  %128 = load float, ptr %25, align 4, !tbaa !80
  %129 = load ptr, ptr %17, align 8, !tbaa !85
  %130 = getelementptr inbounds float, ptr %129, i64 0
  store float %128, ptr %130, align 4, !tbaa !80
  %131 = load float, ptr %26, align 4, !tbaa !80
  %132 = load ptr, ptr %17, align 8, !tbaa !85
  %133 = getelementptr inbounds float, ptr %132, i64 1
  store float %131, ptr %133, align 4, !tbaa !80
  call void @llvm.lifetime.end.p0(i64 4, ptr %32) #11
  call void @llvm.lifetime.end.p0(i64 4, ptr %31) #11
  call void @llvm.lifetime.end.p0(i64 4, ptr %30) #11
  call void @llvm.lifetime.end.p0(i64 4, ptr %29) #11
  call void @llvm.lifetime.end.p0(i64 4, ptr %28) #11
  call void @llvm.lifetime.end.p0(i64 4, ptr %27) #11
  call void @llvm.lifetime.end.p0(i64 4, ptr %26) #11
  call void @llvm.lifetime.end.p0(i64 4, ptr %25) #11
  call void @llvm.lifetime.end.p0(i64 4, ptr %24) #11
  call void @llvm.lifetime.end.p0(i64 4, ptr %23) #11
  call void @llvm.lifetime.end.p0(i64 4, ptr %22) #11
  call void @llvm.lifetime.end.p0(i64 4, ptr %21) #11
  call void @llvm.lifetime.end.p0(i64 4, ptr %20) #11
  call void @llvm.lifetime.end.p0(i64 8, ptr %19) #11
  call void @llvm.lifetime.end.p0(i64 8, ptr %18) #11
  call void @llvm.lifetime.end.p0(i64 8, ptr %17) #11
  call void @llvm.lifetime.end.p0(i64 8, ptr %16) #11
  call void @llvm.lifetime.end.p0(i64 8, ptr %15) #11
  ret void
}