; Function Attrs: nofree norecurse nosync nounwind memory(argmem: readwrite) uwtable
define internal void @biquad_svf_flt(ptr noundef readonly captures(none) %0, ptr noundef readonly captures(none) %1, ptr noundef writeonly captures(none) %2, i32 noundef %3, ptr noundef captures(none) %4, ptr readnone captures(none) %5, i32 noundef %6) #7 {
  %8 = getelementptr inbounds nuw i8, ptr %0, i64 172
  %9 = getelementptr inbounds nuw i8, ptr %0, i64 164
  %10 = load float, ptr %9, align 4, !tbaa !73
  %11 = getelementptr inbounds nuw i8, ptr %0, i64 168
  %12 = load float, ptr %11, align 4, !tbaa !73
  %13 = load float, ptr %8, align 4, !tbaa !73
  %14 = getelementptr inbounds nuw i8, ptr %0, i64 176
  %15 = load float, ptr %14, align 4, !tbaa !73
  %16 = getelementptr inbounds nuw i8, ptr %0, i64 180
  %17 = load float, ptr %16, align 4, !tbaa !73
  %18 = load float, ptr %4, align 4, !tbaa !73
  %19 = getelementptr inbounds nuw i8, ptr %4, i64 4
  %20 = load float, ptr %19, align 4, !tbaa !73
  %21 = getelementptr inbounds nuw i8, ptr %0, i64 64
  %22 = load double, ptr %21, align 8, !tbaa !75
  %23 = fptrunc nsz double %22 to float
  %24 = fsub nsz float 1.000000e+00, %23
  %25 = icmp sgt i32 %3, 0
  br i1 %25, label %.lr.ph, label %._crit_edge

.lr.ph:                                           ; preds = %7
  %.not = icmp eq i32 %6, 0
  %wide.trip.count62 = zext nneg i32 %3 to i64
  br i1 %.not, label %.lr.ph.split.us, label %.lr.ph.split

.lr.ph.split.us:                                  ; preds = %.lr.ph, %.lr.ph.split.us
  %indvars.iv59 = phi i64 [ %indvars.iv.next60, %.lr.ph.split.us ], [ 0, %.lr.ph ]
  %.04750.us = phi float [ %30, %.lr.ph.split.us ], [ %18, %.lr.ph ]
  %.04849.us = phi float [ %32, %.lr.ph.split.us ], [ %20, %.lr.ph ]
  %26 = getelementptr inbounds nuw float, ptr %1, i64 %indvars.iv59
  %27 = load float, ptr %26, align 4, !tbaa !73
  %28 = fmul nsz float %10, %.04750.us
  %29 = tail call nsz float @llvm.fmuladd.f32(float %13, float %27, float %28)
  %30 = fadd nsz float %.04849.us, %29
  %31 = fmul nsz float %12, %.04750.us
  %32 = tail call nsz float @llvm.fmuladd.f32(float %15, float %27, float %31)
  %33 = tail call nsz float @llvm.fmuladd.f32(float %17, float %27, float %.04750.us)
  %34 = fmul nsz float %24, %27
  %35 = tail call nsz float @llvm.fmuladd.f32(float %33, float %23, float %34)
  %36 = getelementptr inbounds nuw float, ptr %2, i64 %indvars.iv59
  store float %35, ptr %36, align 4, !tbaa !73
  %indvars.iv.next60 = add nuw nsw i64 %indvars.iv59, 1
  %exitcond63.not = icmp eq i64 %indvars.iv.next60, %wide.trip.count62
  br i1 %exitcond63.not, label %._crit_edge, label %.lr.ph.split.us, !llvm.loop !100

._crit_edge:                                      ; preds = %.lr.ph.split, %.lr.ph.split.us, %7
  %.048.lcssa = phi float [ %20, %7 ], [ %32, %.lr.ph.split.us ], [ %43, %.lr.ph.split ]
  %.047.lcssa = phi float [ %18, %7 ], [ %30, %.lr.ph.split.us ], [ %41, %.lr.ph.split ]
  store float %.047.lcssa, ptr %4, align 4, !tbaa !73
  store float %.048.lcssa, ptr %19, align 4, !tbaa !73
  ret void

.lr.ph.split:                                     ; preds = %.lr.ph, %.lr.ph.split
  %indvars.iv = phi i64 [ %indvars.iv.next, %.lr.ph.split ], [ 0, %.lr.ph ]
  %.04750 = phi float [ %41, %.lr.ph.split ], [ %18, %.lr.ph ]
  %.04849 = phi float [ %43, %.lr.ph.split ], [ %20, %.lr.ph ]
  %37 = getelementptr inbounds nuw float, ptr %1, i64 %indvars.iv
  %38 = load float, ptr %37, align 4, !tbaa !73
  %39 = fmul nsz float %10, %.04750
  %40 = tail call nsz float @llvm.fmuladd.f32(float %13, float %38, float %39)
  %41 = fadd nsz float %.04849, %40
  %42 = fmul nsz float %12, %.04750
  %43 = tail call nsz float @llvm.fmuladd.f32(float %15, float %38, float %42)
  %44 = getelementptr inbounds nuw float, ptr %2, i64 %indvars.iv
  store float %38, ptr %44, align 4, !tbaa !73
  %indvars.iv.next = add nuw nsw i64 %indvars.iv, 1
  %exitcond.not = icmp eq i64 %indvars.iv.next, %wide.trip.count62
  br i1 %exitcond.not, label %._crit_edge, label %.lr.ph.split, !llvm.loop !100
}